target datalayout = "e-m:e-p270:32:32-p271:32:32-p272:64:64-i64:64-i128:128-f80:128-n8:16:32:64-S128"
target triple = "x86_64-pc-linux-gnu"

%struct.Abc_Ntk_t_ = type { i32, i32, ptr, ptr, ptr, ptr, ptr, ptr, ptr, ptr, ptr, ptr, ptr, [11 x i32], i32, i32, i32, i32, ptr, i32, ptr, ptr, i32, i32, i32, double, i32, %struct.Vec_Int_t_, ptr, ptr, ptr, ptr, ptr, float, i32, ptr, ptr, ptr, ptr, ptr, ptr, ptr, ptr, ptr, ptr, ptr, ptr, ptr, ptr, ptr, ptr, ptr, ptr, ptr, ptr, ptr }
%struct.Vec_Int_t_ = type { i32, i32, ptr }
%struct.Abc_ManRst_t_ = type { ptr, i32, i32, i32, i32, ptr, ptr, ptr, ptr, ptr, ptr, ptr, ptr, ptr, ptr, ptr, i32, i32, i32, i32, i32, i32, i32, i32, i32, i32, i32, i32, i32 }
%struct.Abc_Obj_t_ = type { ptr, ptr, i32, i32, %struct.Vec_Int_t_, %struct.Vec_Int_t_, %union.anon, %union.anon.0 }
%union.anon = type { ptr }
%union.anon.0 = type { ptr }
%struct.Dec_Graph_t_ = type { i32, i32, i32, i32, ptr, %struct.Dec_Edge_t_ }
%struct.Dec_Edge_t_ = type { i32 }
%struct.Dec_Node_t_ = type { %struct.Dec_Edge_t_, %struct.Dec_Edge_t_, %union.anon.1, i32 }
%union.anon.1 = type { ptr }

; Function Attrs: nounwind uwtable
define internal i32 @Vec_IntGetEntry(ptr noundef %0, i32 noundef %1) #0 {
  %3 = alloca ptr, align 8
  %4 = alloca i32, align 4
  store ptr %0, ptr %3, align 8
  store i32 %1, ptr %4, align 4
  %5 = load ptr, ptr %3, align 8
  %6 = load i32, ptr %4, align 4
  %7 = add nsw i32 %6, 1
  call void @Vec_IntFillExtra(ptr noundef %5, i32 noundef %7, i32 noundef 0)
  %8 = load ptr, ptr %3, align 8
  %9 = load i32, ptr %4, align 4
  %10 = call i32 @Vec_IntEntry(ptr noundef %8, i32 noundef %9)
  ret i32 %10
}

; Function Attrs: nounwind uwtable
define internal i32 @Abc_ObjId(ptr noundef %0) #0 {
  %2 = alloca ptr, align 8
  store ptr %0, ptr %2, align 8
  %3 = load ptr, ptr %2, align 8
  %4 = getelementptr inbounds %struct.Abc_Obj_t_, ptr %3, i32 0, i32 2
  %5 = load i32, ptr %4, align 8
  ret i32 %5
}

; Function Attrs: nounwind uwtable
define internal ptr @Abc_ObjNtk(ptr noundef %0) #0 {
  %2 = alloca ptr, align 8
  store ptr %0, ptr %2, align 8
  %3 = load ptr, ptr %2, align 8
  %4 = getelementptr inbounds %struct.Abc_Obj_t_, ptr %3, i32 0, i32 0
  %5 = load ptr, ptr %4, align 8
  ret ptr %5
}

; Function Attrs: nounwind uwtable
define internal i32 @Abc_NodeTravId(ptr noundef %0) #0 {
  %2 = alloca ptr, align 8
  store ptr %0, ptr %2, align 8
  %3 = load ptr, ptr %2, align 8
  %4 = call ptr @Abc_ObjNtk(ptr noundef %3)
  %5 = getelementptr inbounds %struct.Abc_Ntk_t_, ptr %4, i32 0, i32 27
  %6 = load ptr, ptr %2, align 8
  %7 = call i32 @Abc_ObjId(ptr noundef %6)
  %8 = call i32 @Vec_IntGetEntry(ptr noundef %5, i32 noundef %7)
  ret i32 %8
}

; Function Attrs: nounwind uwtable
define internal i32 @Dec_EdgeCreate(i32 noundef %0, i32 noundef %1) #0 {
  %3 = alloca %struct.Dec_Edge_t_, align 4
  %4 = alloca i32, align 4
  %5 = alloca i32, align 4
  store i32 %0, ptr %4, align 4
  store i32 %1, ptr %5, align 4
  %6 = load i32, ptr %5, align 4
  %7 = load i32, ptr %3, align 4
  %8 = and i32 %6, 1
  %9 = and i32 %7, -2
  %10 = or i32 %9, %8
  store i32 %10, ptr %3, align 4
  %11 = load i32, ptr %4, align 4
  %12 = load i32, ptr %3, align 4
  %13 = and i32 %11, 1073741823
  %14 = shl i32 %13, 1
  %15 = and i32 %12, -2147483647
  %16 = or i32 %15, %14
  store i32 %16, ptr %3, align 4
  %17 = getelementptr inbounds %struct.Dec_Edge_t_, ptr %3, i32 0, i32 0
  %18 = load i32, ptr %17, align 4
  ret i32 %18
}

; Function Attrs: nounwind uwtable
define internal ptr @Abc_ObjNot(ptr noundef %0) #0 {
  %2 = alloca ptr, align 8
  store ptr %0, ptr %2, align 8
  %3 = load ptr, ptr %2, align 8
  %4 = ptrtoint ptr %3 to i64
  %5 = xor i64 %4, 1
  %6 = inttoptr i64 %5 to ptr
  ret ptr %6
}

; Function Attrs: nounwind uwtable
define internal void @Vec_IntWriteEntry(ptr noundef %0, i32 noundef %1, i32 noundef %2) #0 {
  %4 = alloca ptr, align 8
  %5 = alloca i32, align 4
  %6 = alloca i32, align 4
  store ptr %0, ptr %4, align 8
  store i32 %1, ptr %5, align 4
  store i32 %2, ptr %6, align 4
  %7 = load i32, ptr %6, align 4
  %8 = load ptr, ptr %4, align 8
  %9 = getelementptr inbounds %struct.Vec_Int_t_, ptr %8, i32 0, i32 2
  %10 = load ptr, ptr %9, align 8
  %11 = load i32, ptr %5, align 4
  %12 = sext i32 %11 to i64
  %13 = getelementptr inbounds i32, ptr %10, i64 %12
  store i32 %7, ptr %13, align 4
  ret void
}

; Function Attrs: nounwind uwtable
define internal i32 @Dec_EdgeToInt(i32 %0) #0 {
  %2 = alloca %struct.Dec_Edge_t_, align 4
  %3 = getelementptr inbounds %struct.Dec_Edge_t_, ptr %2, i32 0, i32 0
  store i32 %0, ptr %3, align 4
  %4 = load i32, ptr %2, align 4
  %5 = lshr i32 %4, 1
  %6 = and i32 %5, 1073741823
  %7 = shl i32 %6, 1
  %8 = load i32, ptr %2, align 4
  %9 = and i32 %8, 1
  %10 = or i32 %7, %9
  ret i32 %10
}

; Function Attrs: nounwind uwtable
define internal i32 @Abc_NodeIsTravIdCurrent(ptr noundef %0) #0 {
  %2 = alloca ptr, align 8
  store ptr %0, ptr %2, align 8
  %3 = load ptr, ptr %2, align 8
  %4 = call i32 @Abc_NodeTravId(ptr noundef %3)
  %5 = load ptr, ptr %2, align 8
  %6 = call ptr @Abc_ObjNtk(ptr noundef %5)
  %7 = getelementptr inbounds %struct.Abc_Ntk_t_, ptr %6, i32 0, i32 26
  %8 = load i32, ptr %7, align 8
  %9 = icmp eq i32 %4, %8
  %10 = zext i1 %9 to i32
  ret i32 %10
}

; Function Attrs: nounwind uwtable
define internal ptr @Abc_ObjRegular(ptr noundef %0) #0 {
  %2 = alloca ptr, align 8
  store ptr %0, ptr %2, align 8
  %3 = load ptr, ptr %2, align 8
  %4 = ptrtoint ptr %3 to i64
  %5 = and i64 %4, -2
  %6 = inttoptr i64 %5 to ptr
  ret ptr %6
}

; Function Attrs: nounwind uwtable
define internal ptr @Abc_ObjNotCond(ptr noundef %0, i32 noundef %1) #0 {
  %3 = alloca ptr, align 8
  %4 = alloca i32, align 4
  store ptr %0, ptr %3, align 8
  store i32 %1, ptr %4, align 4
  %5 = load ptr, ptr %3, align 8
  %6 = ptrtoint ptr %5 to i64
  %7 = load i32, ptr %4, align 4
  %8 = icmp ne i32 %7, 0
  %9 = zext i1 %8 to i32
  %10 = sext i32 %9 to i64
  %11 = xor i64 %6, %10
  %12 = inttoptr i64 %11 to ptr
  ret ptr %12
}

; Function Attrs: nounwind uwtable
define internal ptr @Dec_GraphNode(ptr noundef %0, i32 noundef %1) #0 {
  %3 = alloca ptr, align 8
  %4 = alloca i32, align 4
  store ptr %0, ptr %3, align 8
  store i32 %1, ptr %4, align 4
  %5 = load ptr, ptr %3, align 8
  %6 = getelementptr inbounds %struct.Dec_Graph_t_, ptr %5, i32 0, i32 4
  %7 = load ptr, ptr %6, align 8
  %8 = load i32, ptr %4, align 4
  %9 = sext i32 %8 to i64
  %10 = getelementptr inbounds %struct.Dec_Node_t_, ptr %7, i64 %9
  ret ptr %10
}

; Function Attrs: nounwind uwtable
define internal i32 @Dec_IntToEdge(i32 noundef %0) #0 {
  %2 = alloca %struct.Dec_Edge_t_, align 4
  %3 = alloca i32, align 4
  store i32 %0, ptr %3, align 4
  %4 = load i32, ptr %3, align 4
  %5 = lshr i32 %4, 1
  %6 = load i32, ptr %3, align 4
  %7 = and i32 %6, 1
  %8 = call i32 @Dec_EdgeCreate(i32 noundef %5, i32 noundef %7)
  %9 = getelementptr inbounds %struct.Dec_Edge_t_, ptr %2, i32 0, i32 0
  store i32 %8, ptr %9, align 4
  %10 = getelementptr inbounds %struct.Dec_Edge_t_, ptr %2, i32 0, i32 0
  %11 = load i32, ptr %10, align 4
  ret i32 %11
}

; Function Attrs: nounwind uwtable
define internal i32 @Vec_IntEntry(ptr noundef %0, i32 noundef %1) #0 {
  %3 = alloca ptr, align 8
  %4 = alloca i32, align 4
  store ptr %0, ptr %3, align 8
  store i32 %1, ptr %4, align 4
  %5 = load ptr, ptr %3, align 8
  %6 = getelementptr inbounds %struct.Vec_Int_t_, ptr %5, i32 0, i32 2
  %7 = load ptr, ptr %6, align 8
  %8 = load i32, ptr %4, align 4
  %9 = sext i32 %8 to i64
  %10 = getelementptr inbounds i32, ptr %7, i64 %9
  %11 = load i32, ptr %10, align 4
  ret i32 %11
}

; Function Attrs: nounwind uwtable
define internal i32 @Vec_IntSize(ptr noundef %0) #0 {
  %2 = alloca ptr, align 8
  store ptr %0, ptr %2, align 8
  %3 = load ptr, ptr %2, align 8
  %4 = getelementptr inbounds %struct.Vec_Int_t_, ptr %3, i32 0, i32 1
  %5 = load i32, ptr %4, align 4
  ret i32 %5
}

; Function Attrs: nounwind uwtable
define void @Abc_NodeEdgeDsdPermute(ptr noundef %0, ptr noundef %1, ptr noundef %2, i32 noundef %3) #0 {
  %5 = alloca ptr, align 8
  %6 = alloca ptr, align 8
  %7 = alloca ptr, align 8
  %8 = alloca i32, align 4
  %9 = alloca %struct.Dec_Edge_t_, align 4
  %10 = alloca %struct.Dec_Edge_t_, align 4
  %11 = alloca %struct.Dec_Edge_t_, align 4
  %12 = alloca ptr, align 8
  %13 = alloca ptr, align 8
  %14 = alloca ptr, align 8
  %15 = alloca ptr, align 8
  %16 = alloca i32, align 4
  %17 = alloca i32, align 4
  %18 = alloca i32, align 4
  %19 = alloca %struct.Dec_Edge_t_, align 4
  %20 = alloca %struct.Dec_Edge_t_, align 4
  %21 = alloca %struct.Dec_Edge_t_, align 4
  store ptr %0, ptr %5, align 8
  store ptr %1, ptr %6, align 8
  store ptr %2, ptr %7, align 8
  store i32 %3, ptr %8, align 4
  store i32 0, ptr %16, align 4
  %22 = load ptr, ptr %7, align 8
  %23 = call i32 @Vec_IntSize(ptr noundef %22)
  %24 = sub nsw i32 %23, 2
  store i32 %24, ptr %17, align 4
  %25 = load i32, ptr %16, align 4
  %26 = load i32, ptr %17, align 4
  %27 = icmp eq i32 %25, %26
  br i1 %27, label %28, label %29

28:                                               ; preds = %4
  br label %203

29:                                               ; preds = %4
  %30 = load ptr, ptr %7, align 8
  %31 = load i32, ptr %17, align 4
  %32 = add nsw i32 %31, 1
  %33 = call i32 @Vec_IntEntry(ptr noundef %30, i32 noundef %32)
  %34 = call i32 @Dec_IntToEdge(i32 noundef %33)
  %35 = getelementptr inbounds %struct.Dec_Edge_t_, ptr %19, i32 0, i32 0
  store i32 %34, ptr %35, align 4
  call void @llvm.memcpy.p0.p0.i64(ptr align 4 %9, ptr align 4 %19, i64 4, i1 false)
  %36 = load ptr, ptr %7, align 8
  %37 = load i32, ptr %17, align 4
  %38 = call i32 @Vec_IntEntry(ptr noundef %36, i32 noundef %37)
  %39 = call i32 @Dec_IntToEdge(i32 noundef %38)
  %40 = getelementptr inbounds %struct.Dec_Edge_t_, ptr %20, i32 0, i32 0
  store i32 %39, ptr %40, align 4
  call void @llvm.memcpy.p0.p0.i64(ptr align 4 %10, ptr align 4 %20, i64 4, i1 false)
  %41 = load ptr, ptr %5, align 8
  %42 = load i32, ptr %9, align 4
  %43 = lshr i32 %42, 1
  %44 = and i32 %43, 1073741823
  %45 = call ptr @Dec_GraphNode(ptr noundef %41, i32 noundef %44)
  %46 = getelementptr inbounds %struct.Dec_Node_t_, ptr %45, i32 0, i32 2
  %47 = load ptr, ptr %46, align 8
  store ptr %47, ptr %12, align 8
  %48 = load ptr, ptr %5, align 8
  %49 = load i32, ptr %10, align 4
  %50 = lshr i32 %49, 1
  %51 = and i32 %50, 1073741823
  %52 = call ptr @Dec_GraphNode(ptr noundef %48, i32 noundef %51)
  %53 = getelementptr inbounds %struct.Dec_Node_t_, ptr %52, i32 0, i32 2
  %54 = load ptr, ptr %53, align 8
  store ptr %54, ptr %13, align 8
  %55 = load ptr, ptr %12, align 8
  %56 = icmp ne ptr %55, null
  br i1 %56, label %58, label %57

57:                                               ; preds = %29
  br label %63

58:                                               ; preds = %29
  %59 = load ptr, ptr %12, align 8
  %60 = load i32, ptr %9, align 4
  %61 = and i32 %60, 1
  %62 = call ptr @Abc_ObjNotCond(ptr noundef %59, i32 noundef %61)
  br label %63

63:                                               ; preds = %58, %57
  %64 = phi ptr [ null, %57 ], [ %62, %58 ]
  store ptr %64, ptr %12, align 8
  %65 = load ptr, ptr %13, align 8
  %66 = icmp ne ptr %65, null
  br i1 %66, label %68, label %67

67:                                               ; preds = %63
  br label %73

68:                                               ; preds = %63
  %69 = load ptr, ptr %13, align 8
  %70 = load i32, ptr %10, align 4
  %71 = and i32 %70, 1
  %72 = call ptr @Abc_ObjNotCond(ptr noundef %69, i32 noundef %71)
  br label %73

73:                                               ; preds = %68, %67
  %74 = phi ptr [ null, %67 ], [ %72, %68 ]
  store ptr %74, ptr %13, align 8
  %75 = load ptr, ptr %12, align 8
  %76 = icmp eq ptr %75, null
  br i1 %76, label %77, label %78

77:                                               ; preds = %73
  br label %203

78:                                               ; preds = %73
  %79 = load i32, ptr %17, align 4
  store i32 %79, ptr %18, align 4
  br label %80

80:                                               ; preds = %200, %78
  %81 = load i32, ptr %18, align 4
  %82 = load i32, ptr %16, align 4
  %83 = icmp sge i32 %81, %82
  br i1 %83, label %84, label %203

84:                                               ; preds = %80
  %85 = load ptr, ptr %7, align 8
  %86 = load i32, ptr %18, align 4
  %87 = call i32 @Vec_IntEntry(ptr noundef %85, i32 noundef %86)
  %88 = call i32 @Dec_IntToEdge(i32 noundef %87)
  %89 = getelementptr inbounds %struct.Dec_Edge_t_, ptr %21, i32 0, i32 0
  store i32 %88, ptr %89, align 4
  call void @llvm.memcpy.p0.p0.i64(ptr align 4 %11, ptr align 4 %21, i64 4, i1 false)
  %90 = load ptr, ptr %5, align 8
  %91 = load i32, ptr %11, align 4
  %92 = lshr i32 %91, 1
  %93 = and i32 %92, 1073741823
  %94 = call ptr @Dec_GraphNode(ptr noundef %90, i32 noundef %93)
  %95 = getelementptr inbounds %struct.Dec_Node_t_, ptr %94, i32 0, i32 2
  %96 = load ptr, ptr %95, align 8
  store ptr %96, ptr %14, align 8
  %97 = load ptr, ptr %14, align 8
  %98 = icmp ne ptr %97, null
  br i1 %98, label %100, label %99

99:                                               ; preds = %84
  br label %105

100:                                              ; preds = %84
  %101 = load ptr, ptr %14, align 8
  %102 = load i32, ptr %11, align 4
  %103 = and i32 %102, 1
  %104 = call ptr @Abc_ObjNotCond(ptr noundef %101, i32 noundef %103)
  br label %105

105:                                              ; preds = %100, %99
  %106 = phi ptr [ null, %99 ], [ %104, %100 ]
  store ptr %106, ptr %14, align 8
  %107 = load ptr, ptr %14, align 8
  %108 = icmp eq ptr %107, null
  br i1 %108, label %109, label %110

109:                                              ; preds = %105
  br label %200

110:                                              ; preds = %105
  %111 = load i32, ptr %8, align 4
  %112 = icmp ne i32 %111, 0
  br i1 %112, label %113, label %153

113:                                              ; preds = %110
  %114 = load ptr, ptr %12, align 8
  %115 = icmp ne ptr %114, null
  br i1 %115, label %116, label %152

116:                                              ; preds = %113
  %117 = load ptr, ptr %14, align 8
  %118 = icmp ne ptr %117, null
  br i1 %118, label %119, label %152

119:                                              ; preds = %116
  %120 = load ptr, ptr %6, align 8
  %121 = getelementptr inbounds %struct.Abc_ManRst_t_, ptr %120, i32 0, i32 0
  %122 = load ptr, ptr %121, align 8
  %123 = getelementptr inbounds %struct.Abc_Ntk_t_, ptr %122, i32 0, i32 30
  %124 = load ptr, ptr %123, align 8
  %125 = load ptr, ptr %12, align 8
  %126 = load ptr, ptr %14, align 8
  %127 = call ptr @Abc_AigXorLookup(ptr noundef %124, ptr noundef %125, ptr noundef %126, ptr noundef null)
  store ptr %127, ptr %15, align 8
  %128 = load ptr, ptr %15, align 8
  %129 = icmp ne ptr %128, null
  br i1 %129, label %130, label %135

130:                                              ; preds = %119
  %131 = load ptr, ptr %15, align 8
  %132 = call ptr @Abc_ObjRegular(ptr noundef %131)
  %133 = call i32 @Abc_NodeIsTravIdCurrent(ptr noundef %132)
  %134 = icmp ne i32 %133, 0
  br i1 %134, label %135, label %136

135:                                              ; preds = %130, %119
  br label %200

136:                                              ; preds = %130
  %137 = load ptr, ptr %14, align 8
  %138 = load ptr, ptr %13, align 8
  %139 = icmp eq ptr %137, %138
  br i1 %139, label %140, label %141

140:                                              ; preds = %136
  br label %203

141:                                              ; preds = %136
  %142 = load ptr, ptr %7, align 8
  %143 = load i32, ptr %18, align 4
  %144 = getelementptr inbounds %struct.Dec_Edge_t_, ptr %10, i32 0, i32 0
  %145 = load i32, ptr %144, align 4
  %146 = call i32 @Dec_EdgeToInt(i32 %145)
  call void @Vec_IntWriteEntry(ptr noundef %142, i32 noundef %143, i32 noundef %146)
  %147 = load ptr, ptr %7, align 8
  %148 = load i32, ptr %17, align 4
  %149 = getelementptr inbounds %struct.Dec_Edge_t_, ptr %11, i32 0, i32 0
  %150 = load i32, ptr %149, align 4
  %151 = call i32 @Dec_EdgeToInt(i32 %150)
  call void @Vec_IntWriteEntry(ptr noundef %147, i32 noundef %148, i32 noundef %151)
  br label %203

152:                                              ; preds = %116, %113
  br label %199

153:                                              ; preds = %110
  %154 = load ptr, ptr %12, align 8
  %155 = icmp ne ptr %154, null
  br i1 %155, label %156, label %198

156:                                              ; preds = %153
  %157 = load ptr, ptr %14, align 8
  %158 = icmp ne ptr %157, null
  br i1 %158, label %159, label %198

159:                                              ; preds = %156
  %160 = load ptr, ptr %6, align 8
  %161 = getelementptr inbounds %struct.Abc_ManRst_t_, ptr %160, i32 0, i32 0
  %162 = load ptr, ptr %161, align 8
  %163 = getelementptr inbounds %struct.Abc_Ntk_t_, ptr %162, i32 0, i32 30
  %164 = load ptr, ptr %163, align 8
  %165 = load ptr, ptr %12, align 8
  %166 = call ptr @Abc_ObjNot(ptr noundef %165)
  %167 = load ptr, ptr %14, align 8
  %168 = call ptr @Abc_ObjNot(ptr noundef %167)
  %169 = call ptr @Abc_AigAndLookup(ptr noundef %164, ptr noundef %166, ptr noundef %168)
  store ptr %169, ptr %15, align 8
  %170 = load ptr, ptr %15, align 8
  %171 = icmp ne ptr %170, null
  br i1 %171, label %172, label %177

172:                                              ; preds = %159
  %173 = load ptr, ptr %15, align 8
  %174 = call ptr @Abc_ObjRegular(ptr noundef %173)
  %175 = call i32 @Abc_NodeIsTravIdCurrent(ptr noundef %174)
  %176 = icmp ne i32 %175, 0
  br i1 %176, label %177, label %178

177:                                              ; preds = %172, %159
  br label %200

178:                                              ; preds = %172
  %179 = load i32, ptr %11, align 4
  %180 = lshr i32 %179, 1
  %181 = and i32 %180, 1073741823
  %182 = load i32, ptr %10, align 4
  %183 = lshr i32 %182, 1
  %184 = and i32 %183, 1073741823
  %185 = icmp eq i32 %181, %184
  br i1 %185, label %186, label %187

186:                                              ; preds = %178
  br label %203

187:                                              ; preds = %178
  %188 = load ptr, ptr %7, align 8
  %189 = load i32, ptr %18, align 4
  %190 = getelementptr inbounds %struct.Dec_Edge_t_, ptr %10, i32 0, i32 0
  %191 = load i32, ptr %190, align 4
  %192 = call i32 @Dec_EdgeToInt(i32 %191)
  call void @Vec_IntWriteEntry(ptr noundef %188, i32 noundef %189, i32 noundef %192)
  %193 = load ptr, ptr %7, align 8
  %194 = load i32, ptr %17, align 4
  %195 = getelementptr inbounds %struct.Dec_Edge_t_, ptr %11, i32 0, i32 0
  %196 = load i32, ptr %195, align 4
  %197 = call i32 @Dec_EdgeToInt(i32 %196)
  call void @Vec_IntWriteEntry(ptr noundef %193, i32 noundef %194, i32 noundef %197)
  br label %203

198:                                              ; preds = %156, %153
  br label %199

199:                                              ; preds = %198, %152
  br label %200

200:                                              ; preds = %199, %177, %135, %109
  %201 = load i32, ptr %18, align 4
  %202 = add nsw i32 %201, -1
  store i32 %202, ptr %18, align 4
  br label %80, !llvm.loop !15

203:                                              ; preds = %187, %186, %141, %140, %80, %77, %28
  ret void
}