; Function Attrs: nounwind uwtable
define void @Abc_NodeEdgeDsdPermute(ptr noundef readonly captures(none) %0, ptr noundef readonly captures(none) %1, ptr noundef readonly captures(none) %2, i32 noundef %3) local_unnamed_addr #0 {
  %5 = getelementptr i8, ptr %2, i64 4
  %.val82 = load i32, ptr %5, align 4
  %6 = add nsw i32 %.val82, -2
  %7 = icmp eq i32 %6, 0
  br i1 %7, label %.loopexit, label %8

8:                                                ; preds = %4
  %9 = getelementptr i8, ptr %2, i64 8
  %.val83 = load ptr, ptr %9, align 8
  %10 = sext i32 %.val82 to i64
  %11 = getelementptr i32, ptr %.val83, i64 %10
  %12 = getelementptr i8, ptr %11, i64 -4
  %13 = load i32, ptr %12, align 4
  %14 = sext i32 %6 to i64
  %15 = getelementptr inbounds i32, ptr %.val83, i64 %14
  %16 = load i32, ptr %15, align 4
  %17 = and i32 %16, 2147483647
  %18 = lshr i32 %13, 1
  %19 = and i32 %18, 1073741823
  %20 = getelementptr i8, ptr %0, i64 16
  %.val = load ptr, ptr %20, align 8
  %21 = zext nneg i32 %19 to i64
  %22 = getelementptr inbounds nuw %struct.Dec_Node_t_, ptr %.val, i64 %21, i32 2
  %23 = load ptr, ptr %22, align 8
  %24 = lshr i32 %17, 1
  %25 = zext nneg i32 %24 to i64
  %26 = getelementptr inbounds nuw %struct.Dec_Node_t_, ptr %.val, i64 %25, i32 2
  %27 = load ptr, ptr %26, align 8
  %.not = icmp eq ptr %23, null
  %28 = and i32 %13, 1
  %29 = ptrtoint ptr %23 to i64
  %30 = zext nneg i32 %28 to i64
  %31 = xor i64 %29, %30
  %32 = inttoptr i64 %31 to ptr
  %33 = select i1 %.not, ptr null, ptr %32
  %.not73 = icmp eq ptr %27, null
  %34 = and i32 %16, 1
  %35 = ptrtoint ptr %27 to i64
  %36 = zext nneg i32 %34 to i64
  %37 = xor i64 %35, %36
  %38 = inttoptr i64 %37 to ptr
  %39 = select i1 %.not73, ptr null, ptr %38
  %40 = icmp ne ptr %33, null
  %41 = icmp sgt i32 %.val82, 1
  %or.cond = and i1 %40, %41
  br i1 %or.cond, label %.lr.ph, label %.loopexit

.lr.ph:                                           ; preds = %8
  %.not75 = icmp eq i32 %3, 0
  %42 = ptrtoint ptr %33 to i64
  %43 = xor i64 %42, 1
  %44 = inttoptr i64 %43 to ptr
  %45 = zext nneg i32 %6 to i64
  br i1 %.not75, label %.lr.ph.split.us, label %.lr.ph.split

.lr.ph.split.us:                                  ; preds = %.lr.ph, %.thread.us
  %indvars.iv118 = phi i64 [ %indvars.iv.next119, %.thread.us ], [ %45, %.lr.ph ]
  %.val85.us = load ptr, ptr %9, align 8
  %46 = getelementptr inbounds nuw i32, ptr %.val85.us, i64 %indvars.iv118
  %47 = load i32, ptr %46, align 4
  %48 = and i32 %47, 2147483647
  %49 = lshr i32 %48, 1
  %.val81.us = load ptr, ptr %20, align 8
  %50 = zext nneg i32 %49 to i64
  %51 = getelementptr inbounds nuw %struct.Dec_Node_t_, ptr %.val81.us, i64 %50, i32 2
  %52 = load ptr, ptr %51, align 8
  %.not74.us = icmp eq ptr %52, null
  br i1 %.not74.us, label %.thread.us, label %53

53:                                               ; preds = %.lr.ph.split.us
  %54 = and i32 %47, 1
  %55 = ptrtoint ptr %52 to i64
  %56 = zext nneg i32 %54 to i64
  %57 = icmp eq i64 %56, %55
  br i1 %57, label %.thread.us, label %58

58:                                               ; preds = %53
  %59 = xor i64 %55, %56
  %60 = load ptr, ptr %1, align 8
  %61 = getelementptr inbounds nuw i8, ptr %60, i64 256
  %62 = load ptr, ptr %61, align 8
  %63 = xor i64 %59, 1
  %64 = inttoptr i64 %63 to ptr
  %65 = tail call ptr @Abc_AigAndLookup(ptr noundef %62, ptr noundef %44, ptr noundef %64) #19
  %.not76.us = icmp eq ptr %65, null
  br i1 %.not76.us, label %.thread.us, label %66

66:                                               ; preds = %58
  %67 = ptrtoint ptr %65 to i64
  %68 = and i64 %67, -2
  %69 = inttoptr i64 %68 to ptr
  %.val2.i90.us = load ptr, ptr %69, align 8
  %70 = getelementptr i8, ptr %69, i64 16
  %.val3.i91.us = load i32, ptr %70, align 8
  %71 = getelementptr inbounds nuw i8, ptr %.val2.i90.us, i64 224
  %72 = add nsw i32 %.val3.i91.us, 1
  tail call fastcc void @Vec_IntFillExtra(ptr noundef nonnull %71, i32 noundef %72)
  %73 = getelementptr i8, ptr %.val2.i90.us, i64 232
  %.val.i.i.i92.us = load ptr, ptr %73, align 8
  %74 = sext i32 %.val3.i91.us to i64
  %75 = getelementptr inbounds i32, ptr %.val.i.i.i92.us, i64 %74
  %76 = load i32, ptr %75, align 4
  %.val.i93.us = load ptr, ptr %69, align 8
  %77 = getelementptr inbounds nuw i8, ptr %.val.i93.us, i64 216
  %78 = load i32, ptr %77, align 8
  %.not95.us = icmp eq i32 %76, %78
  br i1 %.not95.us, label %.thread.us, label %.split.us

.thread.us:                                       ; preds = %66, %58, %53, %.lr.ph.split.us
  %indvars.iv.next119 = add nsw i64 %indvars.iv118, -1
  %79 = icmp sgt i64 %indvars.iv118, 0
  br i1 %79, label %.lr.ph.split.us, label %.loopexit, !llvm.loop !18

.lr.ph.split:                                     ; preds = %.lr.ph, %.thread
  %indvars.iv = phi i64 [ %indvars.iv.next, %.thread ], [ %45, %.lr.ph ]
  %.val85 = load ptr, ptr %9, align 8
  %80 = getelementptr inbounds nuw i32, ptr %.val85, i64 %indvars.iv
  %81 = load i32, ptr %80, align 4
  %82 = and i32 %81, 2147483647
  %83 = lshr i32 %82, 1
  %.val81 = load ptr, ptr %20, align 8
  %84 = zext nneg i32 %83 to i64
  %85 = getelementptr inbounds nuw %struct.Dec_Node_t_, ptr %.val81, i64 %84, i32 2
  %86 = load ptr, ptr %85, align 8
  %.not74 = icmp eq ptr %86, null
  br i1 %.not74, label %.thread, label %87

87:                                               ; preds = %.lr.ph.split
  %88 = and i32 %81, 1
  %89 = ptrtoint ptr %86 to i64
  %90 = zext nneg i32 %88 to i64
  %91 = xor i64 %89, %90
  %92 = inttoptr i64 %91 to ptr
  %93 = icmp eq i64 %90, %89
  br i1 %93, label %.thread, label %94

94:                                               ; preds = %87
  %95 = load ptr, ptr %1, align 8
  %96 = getelementptr inbounds nuw i8, ptr %95, i64 256
  %97 = load ptr, ptr %96, align 8
  %98 = tail call ptr @Abc_AigXorLookup(ptr noundef %97, ptr noundef nonnull %33, ptr noundef nonnull %92, ptr noundef null) #19
  %.not78 = icmp eq ptr %98, null
  br i1 %.not78, label %.thread, label %99

99:                                               ; preds = %94
  %100 = ptrtoint ptr %98 to i64
  %101 = and i64 %100, -2
  %102 = inttoptr i64 %101 to ptr
  %.val2.i = load ptr, ptr %102, align 8
  %103 = getelementptr i8, ptr %102, i64 16
  %.val3.i = load i32, ptr %103, align 8
  %104 = getelementptr inbounds nuw i8, ptr %.val2.i, i64 224
  %105 = add nsw i32 %.val3.i, 1
  tail call fastcc void @Vec_IntFillExtra(ptr noundef nonnull %104, i32 noundef %105)
  %106 = getelementptr i8, ptr %.val2.i, i64 232
  %.val.i.i.i = load ptr, ptr %106, align 8
  %107 = sext i32 %.val3.i to i64
  %108 = getelementptr inbounds i32, ptr %.val.i.i.i, i64 %107
  %109 = load i32, ptr %108, align 4
  %.val.i = load ptr, ptr %102, align 8
  %110 = getelementptr inbounds nuw i8, ptr %.val.i, i64 216
  %111 = load i32, ptr %110, align 8
  %.not94 = icmp eq i32 %109, %111
  br i1 %.not94, label %.thread, label %112

112:                                              ; preds = %99
  %113 = icmp eq ptr %39, %92
  br i1 %113, label %.loopexit, label %.loopexit.sink.split

.split.us:                                        ; preds = %66
  %114 = icmp eq i32 %49, %24
  br i1 %114, label %.loopexit, label %.loopexit.sink.split

.thread:                                          ; preds = %.lr.ph.split, %94, %99, %87
  %indvars.iv.next = add nsw i64 %indvars.iv, -1
  %115 = icmp sgt i64 %indvars.iv, 0
  br i1 %115, label %.lr.ph.split, label %.loopexit, !llvm.loop !18

.loopexit.sink.split:                             ; preds = %.split.us, %112
  %indvars.iv118.lcssa.sink = phi i64 [ %indvars.iv, %112 ], [ %indvars.iv118, %.split.us ]
  %.lcssa123.sink = phi i32 [ %82, %112 ], [ %48, %.split.us ]
  %.val88 = load ptr, ptr %9, align 8
  %116 = getelementptr inbounds nuw i32, ptr %.val88, i64 %indvars.iv118.lcssa.sink
  store i32 %17, ptr %116, align 4
  %.val89 = load ptr, ptr %9, align 8
  %117 = getelementptr inbounds i32, ptr %.val89, i64 %14
  store i32 %.lcssa123.sink, ptr %117, align 4
  br label %.loopexit

.loopexit:                                        ; preds = %.thread, %.thread.us, %.loopexit.sink.split, %.split.us, %112, %8, %4
  ret void
}